target datalayout = "e-m:e-p270:32:32-p271:32:32-p272:64:64-i64:64-i128:128-f80:128-n8:16:32:64-S128"
target triple = "x86_64-pc-linux-gnu"

%struct.H5C_image_entry_t = type { i64, i64, i32, i32, i32, i32, i8, i32, i64, ptr, i64, i64, ptr }

@H5C_init_g = external global i8, align 1
@H5_libterm_g = external global i8, align 1

; Function Attrs: nounwind uwtable
define internal i32 @H5C__image_entry_cmp(ptr noundef %0, ptr noundef %1) #0 {
  %3 = alloca ptr, align 8
  %4 = alloca ptr, align 8
  %5 = alloca ptr, align 8
  %6 = alloca ptr, align 8
  %7 = alloca i32, align 4
  store ptr %0, ptr %3, align 8, !tbaa !172
  store ptr %1, ptr %4, align 8, !tbaa !172
  call void @llvm.lifetime.start.p0(i64 8, ptr %5) #8
  %8 = load ptr, ptr %3, align 8, !tbaa !172
  store ptr %8, ptr %5, align 8, !tbaa !66
  call void @llvm.lifetime.start.p0(i64 8, ptr %6) #8
  %9 = load ptr, ptr %4, align 8, !tbaa !172
  store ptr %9, ptr %6, align 8, !tbaa !66
  call void @llvm.lifetime.start.p0(i64 4, ptr %7) #8
  store i32 0, ptr %7, align 4, !tbaa !54
  %10 = load i8, ptr @H5C_init_g, align 1, !tbaa !8, !range !10, !noundef !11
  %11 = trunc i8 %10 to i1
  br i1 %11, label %16, label %12

12:                                               ; preds = %2
  %13 = load i8, ptr @H5_libterm_g, align 1, !tbaa !8, !range !10, !noundef !11
  %14 = trunc i8 %13 to i1
  %15 = xor i1 %14, true
  br label %16

16:                                               ; preds = %12, %2
  %17 = phi i1 [ true, %2 ], [ %15, %12 ]
  %18 = xor i1 %17, true
  %19 = xor i1 %18, true
  %20 = zext i1 %19 to i32
  %21 = sext i32 %20 to i64
  %22 = call i64 @llvm.expect.i64(i64 %21, i64 1)
  %23 = icmp ne i64 %22, 0
  br i1 %23, label %24, label %64

24:                                               ; preds = %16
  %25 = load ptr, ptr %5, align 8, !tbaa !66
  %26 = getelementptr inbounds nuw %struct.H5C_image_entry_t, ptr %25, i32 0, i32 7
  %27 = load i32, ptr %26, align 4, !tbaa !166
  %28 = load ptr, ptr %6, align 8, !tbaa !66
  %29 = getelementptr inbounds nuw %struct.H5C_image_entry_t, ptr %28, i32 0, i32 7
  %30 = load i32, ptr %29, align 4, !tbaa !166
  %31 = icmp ugt i32 %27, %30
  br i1 %31, label %32, label %33

32:                                               ; preds = %24
  store i32 -1, ptr %7, align 4, !tbaa !54
  br label %63

33:                                               ; preds = %24
  %34 = load ptr, ptr %5, align 8, !tbaa !66
  %35 = getelementptr inbounds nuw %struct.H5C_image_entry_t, ptr %34, i32 0, i32 7
  %36 = load i32, ptr %35, align 4, !tbaa !166
  %37 = load ptr, ptr %6, align 8, !tbaa !66
  %38 = getelementptr inbounds nuw %struct.H5C_image_entry_t, ptr %37, i32 0, i32 7
  %39 = load i32, ptr %38, align 4, !tbaa !166
  %40 = icmp ult i32 %36, %39
  br i1 %40, label %41, label %42

41:                                               ; preds = %33
  store i32 1, ptr %7, align 4, !tbaa !54
  br label %62

42:                                               ; preds = %33
  %43 = load ptr, ptr %5, align 8, !tbaa !66
  %44 = getelementptr inbounds nuw %struct.H5C_image_entry_t, ptr %43, i32 0, i32 5
  %45 = load i32, ptr %44, align 4, !tbaa !164
  %46 = load ptr, ptr %6, align 8, !tbaa !66
  %47 = getelementptr inbounds nuw %struct.H5C_image_entry_t, ptr %46, i32 0, i32 5
  %48 = load i32, ptr %47, align 4, !tbaa !164
  %49 = icmp slt i32 %45, %48
  br i1 %49, label %50, label %51

50:                                               ; preds = %42
  store i32 -1, ptr %7, align 4, !tbaa !54
  br label %61

51:                                               ; preds = %42
  %52 = load ptr, ptr %5, align 8, !tbaa !66
  %53 = getelementptr inbounds nuw %struct.H5C_image_entry_t, ptr %52, i32 0, i32 5
  %54 = load i32, ptr %53, align 4, !tbaa !164
  %55 = load ptr, ptr %6, align 8, !tbaa !66
  %56 = getelementptr inbounds nuw %struct.H5C_image_entry_t, ptr %55, i32 0, i32 5
  %57 = load i32, ptr %56, align 4, !tbaa !164
  %58 = icmp sgt i32 %54, %57
  br i1 %58, label %59, label %60

59:                                               ; preds = %51
  store i32 1, ptr %7, align 4, !tbaa !54
  br label %60

60:                                               ; preds = %59, %51
  br label %61

61:                                               ; preds = %60, %50
  br label %62

62:                                               ; preds = %61, %41
  br label %63

63:                                               ; preds = %62, %32
  br label %64

64:                                               ; preds = %63, %16
  %65 = load i32, ptr %7, align 4, !tbaa !54
  call void @llvm.lifetime.end.p0(i64 4, ptr %7) #8
  call void @llvm.lifetime.end.p0(i64 8, ptr %6) #8
  call void @llvm.lifetime.end.p0(i64 8, ptr %5) #8
  ret i32 %65
}