; Function Attrs: mustprogress nofree norecurse nosync nounwind willreturn memory(read, inaccessiblemem: none) uwtable
define internal range(i32 -1, 2) i32 @H5C__image_entry_cmp(ptr noundef readonly captures(none) %0, ptr noundef readonly captures(none) %1) #0 {
  %3 = load i8, ptr @H5C_init_g, align 1, !tbaa !3, !range !7, !noundef !8
  %4 = trunc nuw i8 %3 to i1
  %5 = load i8, ptr @H5_libterm_g, align 1, !range !7
  %6 = trunc nuw i8 %5 to i1
  %7 = xor i1 %6, true
  %8 = select i1 %4, i1 true, i1 %7
  br i1 %8, label %9, label %25, !prof !9

9:                                                ; preds = %2
  %10 = getelementptr inbounds nuw i8, ptr %0, i64 36
  %11 = load i32, ptr %10, align 4, !tbaa !184
  %12 = getelementptr inbounds nuw i8, ptr %1, i64 36
  %13 = load i32, ptr %12, align 4, !tbaa !184
  %14 = icmp ugt i32 %11, %13
  br i1 %14, label %25, label %15

15:                                               ; preds = %9
  %16 = icmp ult i32 %11, %13
  br i1 %16, label %25, label %17

17:                                               ; preds = %15
  %18 = getelementptr inbounds nuw i8, ptr %0, i64 28
  %19 = load i32, ptr %18, align 4, !tbaa !65
  %20 = getelementptr inbounds nuw i8, ptr %1, i64 28
  %21 = load i32, ptr %20, align 4, !tbaa !65
  %22 = icmp slt i32 %19, %21
  br i1 %22, label %25, label %23

23:                                               ; preds = %17
  %24 = icmp sgt i32 %19, %21
  %spec.select = zext i1 %24 to i32
  br label %25

25:                                               ; preds = %23, %17, %15, %9, %2
  %.0 = phi i32 [ 0, %2 ], [ -1, %9 ], [ 1, %15 ], [ -1, %17 ], [ %spec.select, %23 ]
  ret i32 %.0
}